; Function Attrs: mustprogress nounwind uwtable
define noundef zeroext i1 @_ZNK19OpenColorIO_v2_5dev10ColorSpace11hasCategoryEPKc(ptr noundef nonnull readonly align 8 captures(none) dereferenceable(8) %0, ptr noundef %1) local_unnamed_addr #3 align 2 {
  %3 = load ptr, ptr %0, align 8, !tbaa !52
  %4 = getelementptr inbounds nuw i8, ptr %3, i64 264
  %5 = tail call ptr @_ZNK19OpenColorIO_v2_5dev13TokensManager9findTokenB5cxx11EPKc(ptr noundef nonnull align 8 dereferenceable(32) %4, ptr noundef %1) #23
  %6 = getelementptr inbounds nuw i8, ptr %3, i64 280
  %7 = load ptr, ptr %6, align 8, !tbaa !70
  %8 = icmp ne ptr %5, %7
  ret i1 %8
}